; ModuleID = '36/950.c'
source_filename = "36/950.c"
target datalayout = "e-m:e-p270:32:32-p271:32:32-p272:64:64-i64:64-f80:128-n8:16:32:64-S128"
target triple = "x86_64-pc-linux-gnu"

@.str = private unnamed_addr constant [6 x i8] c"%s %s\00", align 1
@.str.1 = private unnamed_addr constant [3 x i8] c"NO\00", align 1
@.str.2 = private unnamed_addr constant [4 x i8] c"YES\00", align 1

; Function Attrs: noinline nounwind uwtable
define dso_local i32 @main() #0 {
  %1 = alloca i32, align 4
  %2 = alloca [100 x i8], align 16
  %3 = alloca [100 x i8], align 16
  %4 = alloca [100 x i32], align 16
  %5 = alloca i32, align 4
  %6 = alloca i32, align 4
  %7 = alloca i32, align 4
  %8 = alloca i32, align 4
  store i32 0, i32* %1, align 4
  %9 = bitcast [100 x i32]* %4 to i8*
  call void @llvm.memset.p0i8.i64(i8* align 16 %9, i8 0, i64 400, i1 false)
  store i32 0, i32* %5, align 4
  store i32 1, i32* %8, align 4
  %10 = getelementptr inbounds [100 x i8], [100 x i8]* %2, i64 0, i64 0
  %11 = getelementptr inbounds [100 x i8], [100 x i8]* %3, i64 0, i64 0
  %12 = call i32 (i8*, ...) @__isoc99_scanf(i8* getelementptr inbounds ([6 x i8], [6 x i8]* @.str, i64 0, i64 0), i8* %10, i8* %11)
  %13 = getelementptr inbounds [100 x i8], [100 x i8]* %2, i64 0, i64 0
  %14 = call i64 @strlen(i8* %13) #4
  %15 = getelementptr inbounds [100 x i8], [100 x i8]* %3, i64 0, i64 0
  %16 = call i64 @strlen(i8* %15) #4
  %17 = icmp eq i64 %14, %16
  br i1 %17, label %18, label %67

18:                                               ; preds = %0
  store i32 0, i32* %7, align 4
  br label %19

19:                                               ; preds = %63, %18
  %20 = load i32, i32* %7, align 4
  %21 = sext i32 %20 to i64
  %22 = getelementptr inbounds [100 x i8], [100 x i8]* %2, i64 0, i64 0
  %23 = call i64 @strlen(i8* %22) #4
  %24 = icmp ult i64 %21, %23
  br i1 %24, label %25, label %66

25:                                               ; preds = %19
  store i32 0, i32* %5, align 4
  store i32 0, i32* %6, align 4
  br label %26

26:                                               ; preds = %55, %25
  %27 = load i32, i32* %6, align 4
  %28 = sext i32 %27 to i64
  %29 = getelementptr inbounds [100 x i8], [100 x i8]* %3, i64 0, i64 0
  %30 = call i64 @strlen(i8* %29) #4
  %31 = icmp ult i64 %28, %30
  br i1 %31, label %32, label %58

32:                                               ; preds = %26
  %33 = load i32, i32* %7, align 4
  %34 = sext i32 %33 to i64
  %35 = getelementptr inbounds [100 x i8], [100 x i8]* %2, i64 0, i64 %34
  %36 = load i8, i8* %35, align 1
  %37 = sext i8 %36 to i32
  %38 = load i32, i32* %6, align 4
  %39 = sext i32 %38 to i64
  %40 = getelementptr inbounds [100 x i8], [100 x i8]* %3, i64 0, i64 %39
  %41 = load i8, i8* %40, align 1
  %42 = sext i8 %41 to i32
  %43 = icmp eq i32 %37, %42
  br i1 %43, label %44, label %54

44:                                               ; preds = %32
  %45 = load i32, i32* %6, align 4
  %46 = sext i32 %45 to i64
  %47 = getelementptr inbounds [100 x i32], [100 x i32]* %4, i64 0, i64 %46
  %48 = load i32, i32* %47, align 4
  %49 = icmp eq i32 %48, 0
  br i1 %49, label %50, label %54

50:                                               ; preds = %44
  %51 = load i32, i32* %6, align 4
  %52 = sext i32 %51 to i64
  %53 = getelementptr inbounds [100 x i32], [100 x i32]* %4, i64 0, i64 %52
  store i32 1, i32* %53, align 4
  store i32 1, i32* %5, align 4
  br label %58

54:                                               ; preds = %44, %32
  br label %55

55:                                               ; preds = %54
  %56 = load i32, i32* %6, align 4
  %57 = add nsw i32 %56, 1
  store i32 %57, i32* %6, align 4
  br label %26

58:                                               ; preds = %50, %26
  %59 = load i32, i32* %5, align 4
  %60 = icmp eq i32 %59, 0
  br i1 %60, label %61, label %62

61:                                               ; preds = %58
  store i32 0, i32* %8, align 4
  br label %66

62:                                               ; preds = %58
  br label %63

63:                                               ; preds = %62
  %64 = load i32, i32* %7, align 4
  %65 = add nsw i32 %64, 1
  store i32 %65, i32* %7, align 4
  br label %19

66:                                               ; preds = %61, %19
  br label %68

67:                                               ; preds = %0
  store i32 0, i32* %8, align 4
  br label %68

68:                                               ; preds = %67, %66
  %69 = load i32, i32* %8, align 4
  %70 = icmp eq i32 %69, 0
  br i1 %70, label %71, label %73

71:                                               ; preds = %68
  %72 = call i32 (i8*, ...) @printf(i8* getelementptr inbounds ([3 x i8], [3 x i8]* @.str.1, i64 0, i64 0))
  br label %75

73:                                               ; preds = %68
  %74 = call i32 (i8*, ...) @printf(i8* getelementptr inbounds ([4 x i8], [4 x i8]* @.str.2, i64 0, i64 0))
  br label %75

75:                                               ; preds = %73, %71
  ret i32 0
}

; Function Attrs: argmemonly nounwind willreturn
declare void @llvm.memset.p0i8.i64(i8* nocapture writeonly, i8, i64, i1 immarg) #1

declare dso_local i32 @__isoc99_scanf(i8*, ...) #2

; Function Attrs: nounwind readonly
declare dso_local i64 @strlen(i8*) #3

declare dso_local i32 @printf(i8*, ...) #2


!llvm.module.flags = !{!0}
!llvm.ident = !{!1}

!0 = !{i32 1, !"wchar_size", i32 4}
!1 = !{!"clang version 10.0.0-4ubuntu1 "}
